target datalayout = "e-m:e-p270:32:32-p271:32:32-p272:64:64-i64:64-i128:128-f80:128-n8:16:32:64-S128"
target triple = "x86_64-pc-linux-gnu"

%struct.pg_enc2name = type { ptr, i32 }

@pg_enc2name_tbl = external constant [0 x %struct.pg_enc2name], align 8
@.str.1 = private unnamed_addr constant [10 x i8] c"mbutils.c\00", align 1
@.str.17 = private unnamed_addr constant [7 x i8] c"0x%02x\00", align 1
@.str.18 = private unnamed_addr constant [2 x i8] c" \00", align 1
@.str.20 = private unnamed_addr constant [84 x i8] c"character with byte sequence %s in encoding \22%s\22 has no equivalent in encoding \22%s\22\00", align 1
@__func__.report_untranslatable_char = private unnamed_addr constant [27 x i8] c"report_untranslatable_char\00", align 1

; Function Attrs: noreturn nounwind uwtable
define dso_local void @report_untranslatable_char(i32 noundef %0, i32 noundef %1, ptr noundef %2, i32 noundef %3) #8 {
  %5 = alloca i32, align 4
  %6 = alloca i32, align 4
  %7 = alloca ptr, align 8
  %8 = alloca i32, align 4
  %9 = alloca i32, align 4
  %10 = alloca [41 x i8], align 16
  %11 = alloca ptr, align 8
  %12 = alloca i32, align 4
  %13 = alloca i32, align 4
  store i32 %0, ptr %5, align 4
  store i32 %1, ptr %6, align 4
  store ptr %2, ptr %7, align 8
  store i32 %3, ptr %8, align 4
  call void @llvm.lifetime.start.p0(i64 4, ptr %9) #9
  %14 = load i32, ptr %5, align 4
  %15 = load ptr, ptr %7, align 8
  %16 = call i32 @pg_encoding_mblen(i32 noundef %14, ptr noundef %15)
  store i32 %16, ptr %9, align 4
  call void @llvm.lifetime.start.p0(i64 41, ptr %10) #9
  call void @llvm.lifetime.start.p0(i64 8, ptr %11) #9
  %17 = getelementptr inbounds [41 x i8], ptr %10, i64 0, i64 0
  store ptr %17, ptr %11, align 8
  call void @llvm.lifetime.start.p0(i64 4, ptr %12) #9
  call void @llvm.lifetime.start.p0(i64 4, ptr %13) #9
  %18 = load i32, ptr %9, align 4
  %19 = load i32, ptr %8, align 4
  %20 = icmp slt i32 %18, %19
  br i1 %20, label %21, label %23

21:                                               ; preds = %4
  %22 = load i32, ptr %9, align 4
  br label %25

23:                                               ; preds = %4
  %24 = load i32, ptr %8, align 4
  br label %25

25:                                               ; preds = %23, %21
  %26 = phi i32 [ %22, %21 ], [ %24, %23 ]
  store i32 %26, ptr %13, align 4
  %27 = load i32, ptr %13, align 4
  %28 = icmp slt i32 %27, 8
  br i1 %28, label %29, label %31

29:                                               ; preds = %25
  %30 = load i32, ptr %13, align 4
  br label %32

31:                                               ; preds = %25
  br label %32

32:                                               ; preds = %31, %29
  %33 = phi i32 [ %30, %29 ], [ 8, %31 ]
  store i32 %33, ptr %13, align 4
  store i32 0, ptr %12, align 4
  br label %34

34:                                               ; preds = %61, %32
  %35 = load i32, ptr %12, align 4
  %36 = load i32, ptr %13, align 4
  %37 = icmp slt i32 %35, %36
  br i1 %37, label %38, label %64

38:                                               ; preds = %34
  %39 = load ptr, ptr %11, align 8
  %40 = load ptr, ptr %7, align 8
  %41 = load i32, ptr %12, align 4
  %42 = sext i32 %41 to i64
  %43 = getelementptr inbounds i8, ptr %40, i64 %42
  %44 = load i8, ptr %43, align 1
  %45 = zext i8 %44 to i32
  %46 = call i32 (ptr, ptr, ...) @pg_sprintf(ptr noundef %39, ptr noundef @.str.17, i32 noundef %45)
  %47 = load ptr, ptr %11, align 8
  %48 = sext i32 %46 to i64
  %49 = getelementptr inbounds i8, ptr %47, i64 %48
  store ptr %49, ptr %11, align 8
  %50 = load i32, ptr %12, align 4
  %51 = load i32, ptr %13, align 4
  %52 = sub i32 %51, 1
  %53 = icmp slt i32 %50, %52
  br i1 %53, label %54, label %60

54:                                               ; preds = %38
  %55 = load ptr, ptr %11, align 8
  %56 = call i32 (ptr, ptr, ...) @pg_sprintf(ptr noundef %55, ptr noundef @.str.18)
  %57 = load ptr, ptr %11, align 8
  %58 = sext i32 %56 to i64
  %59 = getelementptr inbounds i8, ptr %57, i64 %58
  store ptr %59, ptr %11, align 8
  br label %60

60:                                               ; preds = %54, %38
  br label %61

61:                                               ; preds = %60
  %62 = load i32, ptr %12, align 4
  %63 = add i32 %62, 1
  store i32 %63, ptr %12, align 4
  br label %34, !llvm.loop !20

64:                                               ; preds = %34
  br label %65

65:                                               ; preds = %64
  br i1 true, label %66, label %68

66:                                               ; preds = %65
  %67 = call zeroext i1 @errstart_cold(i32 noundef 21, ptr noundef null) #10
  br i1 %67, label %70, label %84

68:                                               ; preds = %65
  %69 = call zeroext i1 @errstart(i32 noundef 21, ptr noundef null)
  br i1 %69, label %70, label %84

70:                                               ; preds = %68, %66
  %71 = call i32 @errcode(i32 noundef 84017282)
  %72 = getelementptr inbounds [41 x i8], ptr %10, i64 0, i64 0
  %73 = load i32, ptr %5, align 4
  %74 = sext i32 %73 to i64
  %75 = getelementptr inbounds [0 x %struct.pg_enc2name], ptr @pg_enc2name_tbl, i64 0, i64 %74
  %76 = getelementptr inbounds nuw %struct.pg_enc2name, ptr %75, i32 0, i32 0
  %77 = load ptr, ptr %76, align 8
  %78 = load i32, ptr %6, align 4
  %79 = sext i32 %78 to i64
  %80 = getelementptr inbounds [0 x %struct.pg_enc2name], ptr @pg_enc2name_tbl, i64 0, i64 %79
  %81 = getelementptr inbounds nuw %struct.pg_enc2name, ptr %80, i32 0, i32 0
  %82 = load ptr, ptr %81, align 8
  %83 = call i32 (ptr, ...) @errmsg(ptr noundef @.str.20, ptr noundef %72, ptr noundef %77, ptr noundef %82)
  call void @errfinish(ptr noundef @.str.1, i32 noundef 1754, ptr noundef @__func__.report_untranslatable_char)
  br label %84

84:                                               ; preds = %70, %68, %66
  unreachable

85:                                               ; No predecessors!
  br label %86

86:                                               ; preds = %85
  call void @llvm.lifetime.end.p0(i64 4, ptr %13) #9
  call void @llvm.lifetime.end.p0(i64 4, ptr %12) #9
  call void @llvm.lifetime.end.p0(i64 8, ptr %11) #9
  call void @llvm.lifetime.end.p0(i64 41, ptr %10) #9
  call void @llvm.lifetime.end.p0(i64 4, ptr %9) #9
  unreachable
}