; Function Attrs: noreturn nounwind uwtable
define dso_local void @report_untranslatable_char(i32 noundef %0, i32 noundef %1, ptr noundef %2, i32 noundef %3) local_unnamed_addr #10 {
  %5 = alloca [41 x i8], align 16
  %6 = tail call i32 @pg_encoding_mblen(i32 noundef %0, ptr noundef %2) #13
  call void @llvm.lifetime.start.p0(i64 41, ptr nonnull %5) #13
  %7 = tail call i32 @llvm.smin.i32(i32 %6, i32 %3)
  %8 = icmp sgt i32 %7, 0
  br i1 %8, label %.lr.ph, label %._crit_edge

.lr.ph:                                           ; preds = %4
  %9 = tail call i32 @llvm.umin.i32(i32 %7, i32 8)
  %10 = add nsw i32 %9, -1
  %11 = zext nneg i32 %10 to i64
  %wide.trip.count = zext nneg i32 %9 to i64
  br label %12

12:                                               ; preds = %.lr.ph, %24
  %indvars.iv = phi i64 [ 0, %.lr.ph ], [ %indvars.iv.next, %24 ]
  %.02022 = phi ptr [ %5, %.lr.ph ], [ %.1, %24 ]
  %13 = getelementptr inbounds nuw i8, ptr %2, i64 %indvars.iv
  %14 = load i8, ptr %13, align 1
  %15 = zext i8 %14 to i32
  %16 = call i32 (ptr, ptr, ...) @pg_sprintf(ptr noundef %.02022, ptr noundef nonnull @.str.17, i32 noundef %15) #13
  %17 = sext i32 %16 to i64
  %18 = getelementptr inbounds i8, ptr %.02022, i64 %17
  %19 = icmp samesign ult i64 %indvars.iv, %11
  br i1 %19, label %20, label %24

20:                                               ; preds = %12
  %21 = call i32 (ptr, ptr, ...) @pg_sprintf(ptr noundef %18, ptr noundef nonnull @.str.18) #13
  %22 = sext i32 %21 to i64
  %23 = getelementptr inbounds i8, ptr %18, i64 %22
  br label %24

24:                                               ; preds = %12, %20
  %.1 = phi ptr [ %23, %20 ], [ %18, %12 ]
  %indvars.iv.next = add nuw nsw i64 %indvars.iv, 1
  %exitcond.not = icmp eq i64 %indvars.iv.next, %wide.trip.count
  br i1 %exitcond.not, label %._crit_edge, label %12, !llvm.loop !17

._crit_edge:                                      ; preds = %24, %4
  %25 = call zeroext i1 @errstart_cold(i32 noundef 21, ptr noundef null) #14
  call void @llvm.assume(i1 %25)
  %26 = call i32 @errcode(i32 noundef 84017282) #13
  %27 = sext i32 %0 to i64
  %28 = getelementptr inbounds [0 x %struct.pg_enc2name], ptr @pg_enc2name_tbl, i64 0, i64 %27
  %29 = load ptr, ptr %28, align 8
  %30 = sext i32 %1 to i64
  %31 = getelementptr inbounds [0 x %struct.pg_enc2name], ptr @pg_enc2name_tbl, i64 0, i64 %30
  %32 = load ptr, ptr %31, align 8
  %33 = call i32 (ptr, ...) @errmsg(ptr noundef nonnull @.str.20, ptr noundef nonnull %5, ptr noundef %29, ptr noundef %32) #13
  call void @errfinish(ptr noundef nonnull @.str.1, i32 noundef 1754, ptr noundef nonnull @__func__.report_untranslatable_char) #13
  unreachable
}